Certificate:
    Data:
        Version: 3 (0x2)
        Serial Number: 1 (0x1)
        Signature Algorithm: sha256WithRSAEncryption
        Issuer: C=CN, ST=NanJing, L=XuanWu, O=Hengsion, OU=Hengsion, CN=niuyaben/emailAddress=niuyabeng@126.com
        Validity
            Not Before: Jan  4 08:01:00 2018 GMT
            Not After : Jan  4 08:01:00 2019 GMT
        Subject: C=CN, ST=NanJing, O=Hengsion, OU=Hengsion, CN=niuyaben/emailAddress=niuyaben@hengsion.com
        Subject Public Key Info:
            Public Key Algorithm: rsaEncryption
                RSA Public-Key: (1024 bit)
                Modulus:
                    00:c8:4a:51:f6:16:76:dd:77:a3:60:1a:ec:6a:ca:
                    e2:c4:4f:0f:99:f3:8b:16:16:ea:ea:2e:14:28:0b:
                    b7:3d:99:d9:99:29:09:7b:e7:ad:4c:ab:e6:02:46:
                    a2:03:b0:af:d4:91:2b:1e:44:6e:b7:38:7b:fa:7e:
                    22:db:1c:76:01:2e:21:29:30:ea:81:00:c9:21:36:
                    42:87:85:d8:7c:7a:85:f7:0a:de:19:53:06:9a:7a:
                    4e:bb:e1:4d:cf:0c:4c:ad:cc:80:9d:97:76:a8:5b:
                    a2:37:f3:02:be:f3:0c:a5:91:cd:4b:da:aa:03:80:
                    19:9b:a6:0c:59:b0:26:f7:65
                Exponent: 65537 (0x10001)
        X509v3 extensions:
            X509v3 Basic Constraints: 
                CA:FALSE
            Netscape Comment: 
                OpenSSL Generated Certificate
            X509v3 Subject Key Identifier: 
                DE:88:09:49:72:E8:91:F5:EF:1D:5E:98:00:71:88:28:E9:E3:32:B3
            X509v3 Authority Key Identifier: 
                keyid:0D:9D:62:78:B4:4E:B1:27:E3:EC:07:6B:3C:92:83:C3:E5:AA:8D:EC

    Signature Algorithm: sha256WithRSAEncryption
         46:1c:88:cc:6a:39:ad:7d:6d:40:8c:62:04:04:8f:58:f3:90:
         89:68:26:f1:f5:17:76:0c:d2:21:df:04:30:f6:7d:ac:5e:9d:
         66:2c:a2:7f:f7:9d:44:c9:4e:78:3e:c0:16:ed:78:dc:95:5f:
         87:27:68:78:5b:d9:b0:e5:36:cb:30:9b:94:10:88:80:08:fb:
         56:91:e6:6d:84:10:6f:40:5c:b3:d8:7b:0b:4b:14:e1:37:16:
         95:a2:8a:22:87:61:11:db:85:c4:f2:5e:02:84:2a:13:d7:d9:
         9b:bc:44:c3:94:1a:ff:e8:93:f2:54:59:df:3c:4c:a3:e5:7c:
         9b:55:87:57:02:52:32:9a:27:fb:49:c7:0e:8f:bd:b7:11:c8:
         47:28:47:b2:34:e4:d4:ef:a8:0c:73:e2:e3:36:2f:d7:02:fc:
         95:3f:f4:01:eb:8a:15:87:68:97:93:64:ed:20:63:14:ed:f8:
         f0:6a:98:45:27:12:c4:6c:a1:9b:05:79:d7:f3:53:db:35:4f:
         21:68:7d:eb:b2:72:48:2e:64:fc:2c:3e:35:6d:ee:98:c5:53:
         1a:8c:3b:9a:49:de:78:54:73:d1:69:87:54:fc:fb:54:52:24:
         54:87:44:15:85:ac:90:76:45:a0:1d:c4:12:f0:ee:50:b0:06:
         b1:fb:c5:01
-----BEGIN CERTIFICATE-----
MIIDfDCCAmSgAwIBAgIBATANBgkqhkiG9w0BAQsFADCBizELMAkGA1UEBhMCQ04x
EDAOBgNVBAgMB05hbkppbmcxDzANBgNVBAcMBlh1YW5XdTERMA8GA1UECgwISGVu
Z3Npb24xETAPBgNVBAsMCEhlbmdzaW9uMREwDwYDVQQDDAhuaXV5YWJlbjEgMB4G
CSqGSIb3DQEJARYRbml1eWFiZW5nQDEyNi5jb20wHhcNMTgwMTA0MDgwMTAwWhcN
MTkwMTA0MDgwMTAwWjB+MQswCQYDVQQGEwJDTjEQMA4GA1UECAwHTmFuSmluZzER
MA8GA1UECgwISGVuZ3Npb24xETAPBgNVBAsMCEhlbmdzaW9uMREwDwYDVQQDDAhu
aXV5YWJlbjEkMCIGCSqGSIb3DQEJARYVbml1eWFiZW5AaGVuZ3Npb24uY29tMIGf
MA0GCSqGSIb3DQEBAQUAA4GNADCBiQKBgQDISlH2Fnbdd6NgGuxqyuLETw+Z84sW
FurqLhQoC7c9mdmZKQl7561Mq+YCRqIDsK/UkSseRG63OHv6fiLbHHYBLiEpMOqB
AMkhNkKHhdh8eoX3Ct4ZUwaaek674U3PDEytzICdl3aoW6I38wK+8wylkc1L2qoD
gBmbpgxZsCb3ZQIDAQABo3sweTAJBgNVHRMEAjAAMCwGCWCGSAGG+EIBDQQfFh1P
cGVuU1NMIEdlbmVyYXRlZCBDZXJ0aWZpY2F0ZTAdBgNVHQ4EFgQU3ogJSXLokfXv
HV6YAHGIKOnjMrMwHwYDVR0jBBgwFoAUDZ1ieLROsSfj7AdrPJKDw+WqjewwDQYJ
KoZIhvcNAQELBQADggEBAEYciMxqOa19bUCMYgQEj1jzkIloJvH1F3YM0iHfBDD2
faxenWYson/3nUTJTng+wBbteNyVX4cnaHhb2bDlNsswm5QQiIAI+1aR5m2EEG9A
XLPYewtLFOE3FpWiiiKHYRHbhcTyXgKEKhPX2Zu8RMOUGv/ok/JUWd88TKPlfJtV
h1cCUjKaJ/tJxw6PvbcRyEcoR7I05NTvqAxz4uM2L9cC/JU/9AHrihWHaJeTZO0g
YxTt+PBqmEUnEsRsoZsFedfzU9s1TyFofeuyckguZPwsPjVt7pjFUxqMO5pJ3nhU
c9Fph1T8+1RSJFSHRBWFrJB2RaAdxBLw7lCwBrH7xQE=
-----END CERTIFICATE-----
